target datalayout = "e-m:e-p270:32:32-p271:32:32-p272:64:64-i64:64-i128:128-f80:128-n8:16:32:64-S128"
target triple = "x86_64-pc-linux-gnu"

@platform_needs_custom_semaphore = internal global i32 0, align 4

; Function Attrs: inlinehint nounwind willreturn memory(read) uwtable
define available_externally i32 @atoi(ptr noundef nonnull %0) #7 {
  %2 = alloca ptr, align 8
  store ptr %0, ptr %2, align 8, !tbaa !26
  %3 = load ptr, ptr %2, align 8, !tbaa !26
  %4 = call i64 @strtol(ptr noundef %3, ptr noundef null, i32 noundef 10) #8
  %5 = trunc i64 %4 to i32
  ret i32 %5
}

; Function Attrs: nounwind uwtable
define internal void @glibc_version_check() #0 {
  %1 = alloca ptr, align 8
  call void @llvm.lifetime.start.p0(i64 8, ptr %1) #8
  %2 = call ptr @gnu_get_libc_version() #8
  store ptr %2, ptr %1, align 8, !tbaa !26
  %3 = load ptr, ptr %1, align 8, !tbaa !26
  %4 = getelementptr inbounds i8, ptr %3, i64 0
  %5 = load i8, ptr %4, align 1, !tbaa !23
  %6 = sext i8 %5 to i32
  %7 = icmp eq i32 %6, 50
  br i1 %7, label %8, label %19

8:                                                ; preds = %0
  %9 = load ptr, ptr %1, align 8, !tbaa !26
  %10 = getelementptr inbounds i8, ptr %9, i64 1
  %11 = load i8, ptr %10, align 1, !tbaa !23
  %12 = sext i8 %11 to i32
  %13 = icmp eq i32 %12, 46
  br i1 %13, label %14, label %19

14:                                               ; preds = %8
  %15 = load ptr, ptr %1, align 8, !tbaa !26
  %16 = getelementptr inbounds i8, ptr %15, i64 2
  %17 = call i32 @atoi(ptr noundef %16) #11
  %18 = icmp slt i32 %17, 21
  br label %19

19:                                               ; preds = %14, %8, %0
  %20 = phi i1 [ false, %8 ], [ false, %0 ], [ %18, %14 ]
  %21 = zext i1 %20 to i32
  store i32 %21, ptr @platform_needs_custom_semaphore, align 4, !tbaa !8
  call void @llvm.lifetime.end.p0(i64 8, ptr %1) #8
  ret void
}