; Function Attrs: nounwind uwtable
define internal void @glibc_version_check() #0 {
  %1 = tail call ptr @gnu_get_libc_version() #10
  %2 = load i8, ptr %1, align 1, !tbaa !20
  %3 = icmp eq i8 %2, 50
  br i1 %3, label %4, label %14

4:                                                ; preds = %0
  %5 = getelementptr inbounds nuw i8, ptr %1, i64 1
  %6 = load i8, ptr %5, align 1, !tbaa !20
  %7 = icmp eq i8 %6, 46
  br i1 %7, label %8, label %14

8:                                                ; preds = %4
  %9 = getelementptr inbounds nuw i8, ptr %1, i64 2
  %10 = tail call i64 @strtol(ptr noundef nonnull captures(none) %9, ptr noundef null, i32 noundef 10) #10
  %11 = trunc i64 %10 to i32
  %12 = icmp slt i32 %11, 21
  %13 = zext i1 %12 to i32
  br label %14

14:                                               ; preds = %8, %4, %0
  %15 = phi i32 [ 0, %4 ], [ 0, %0 ], [ %13, %8 ]
  store i32 %15, ptr @platform_needs_custom_semaphore, align 4, !tbaa !14
  ret void
}